Certificate:
    Data:
        Version: 3 (0x2)
        Serial Number: 4096 (0x1000)
        Signature Algorithm: sha256WithRSAEncryption
        Issuer: CN=www.modelCA.com, O=Model CA LTD., C=US
        Validity
            Not Before: May  7 06:54:07 2024 GMT
            Not After : May  5 06:54:07 2034 GMT
        Subject: C=US, O=Bank32 Inc., CN=www.bank32.com
        Subject Public Key Info:
            Public Key Algorithm: rsaEncryption
                Public-Key: (2048 bit)
                Modulus:
                    00:b4:5f:14:1f:c0:2c:c4:85:7b:a2:b9:65:96:db:
                    6f:22:4c:97:92:78:1a:0c:c8:f9:78:dc:03:5c:fa:
                    1e:94:3c:61:38:b8:f9:5a:7e:bd:bc:5d:a7:28:db:
                    a0:dd:29:ea:ec:c2:52:1b:08:d0:76:d6:dd:06:3c:
                    6a:1f:2f:06:f8:35:43:10:9e:7b:18:cb:95:e8:9d:
                    8b:26:0c:f6:a4:48:96:31:4b:41:44:fa:8d:95:da:
                    49:91:34:21:62:7b:47:f8:52:bc:58:d6:58:70:f0:
                    e1:29:52:e5:10:94:83:b6:b3:38:39:64:ea:8e:22:
                    fb:20:aa:a2:da:33:e4:3a:1a:0e:3d:fd:c0:69:cc:
                    e4:02:91:58:c0:57:c1:b7:52:5e:a6:b3:fe:b1:6f:
                    dd:3e:00:a7:56:df:99:b9:23:2b:6f:61:1b:bd:73:
                    e2:b8:51:42:b3:ea:6f:2b:4a:fc:76:5f:43:71:46:
                    ff:f1:c2:11:a9:20:f4:00:23:78:59:de:a4:3d:51:
                    2d:e7:cc:c7:71:67:61:b0:63:2f:52:c3:49:8a:93:
                    c8:9f:3d:7e:23:75:3d:f4:31:3f:78:0a:61:08:e5:
                    4a:90:d0:b8:6d:d9:6e:45:85:c0:a8:95:68:fd:98:
                    cf:01:8c:46:13:15:96:4f:ea:f5:e9:73:9f:db:0a:
                    ef:97
                Exponent: 65537 (0x10001)
        X509v3 extensions:
            X509v3 Basic Constraints: 
                CA:FALSE
            X509v3 Subject Key Identifier: 
                84:B7:2A:43:6E:20:DC:DA:D7:D5:88:D7:B5:A8:3B:09:27:8E:16:DF
            X509v3 Authority Key Identifier: 
                AC:E5:C7:ED:B7:DE:A8:22:D0:E5:00:8C:6A:DF:4A:EF:1C:D4:5D:FA
    Signature Algorithm: sha256WithRSAEncryption
    Signature Value:
        87:5d:1e:d0:d0:ff:0f:94:37:5e:7e:7c:ba:54:ca:3d:8e:57:
        77:9f:d1:f6:9e:4c:e3:b2:fa:57:75:7d:c7:ce:02:a2:64:50:
        66:22:36:73:e1:50:e9:03:8d:4e:fc:45:52:ee:c6:72:c2:c0:
        22:e5:96:63:e9:bf:c3:2c:8d:55:b8:cc:f3:50:f2:aa:1f:ad:
        71:ff:52:21:3f:f8:ec:df:77:b9:06:ab:0d:96:db:47:bc:75:
        cd:59:03:ec:4c:7a:83:21:ce:70:b6:2d:a2:98:d1:d6:88:1a:
        a7:0d:10:7c:7c:48:74:65:ba:19:f7:79:c9:81:e3:6a:7b:d3:
        fa:5e:d4:b3:96:78:72:8d:10:e6:83:c1:c8:fc:bb:3b:5d:ae:
        43:af:03:8e:98:99:84:91:8d:60:9a:fd:37:91:96:07:b7:27:
        86:e2:30:72:d3:99:51:56:48:f9:13:4a:26:1c:0d:80:5e:24:
        b6:81:5d:2c:c4:73:e0:da:ec:2e:f2:59:4f:60:0f:b0:7d:51:
        ae:68:03:28:5f:fb:05:cc:16:9b:91:76:40:31:b4:3c:16:16:
        56:93:e2:6d:a5:76:71:6c:16:36:a9:b4:c5:4d:2a:c2:1c:aa:
        aa:90:67:a7:9b:40:51:4e:c3:14:38:8e:dc:4e:68:b2:fd:a6:
        15:85:31:0f:a4:2d:89:27:75:44:3a:61:c0:ea:90:14:50:ad:
        1f:7b:92:1e:34:b7:04:66:c1:63:b4:fb:a5:cd:c4:77:90:64:
        d8:2d:47:43:80:cb:88:a2:5c:aa:1f:61:52:91:15:c4:d7:c2:
        21:0a:20:43:04:13:b3:8e:08:19:12:2c:c2:c1:c3:37:e5:e4:
        24:cf:63:c4:4b:30:1a:94:a9:d6:36:96:c6:d1:65:9a:d4:2f:
        c9:ff:83:f1:b9:c2:8b:17:b2:0f:f9:21:76:74:5a:85:1c:e3:
        7d:aa:b3:44:30:aa:be:c1:4e:b5:7d:59:60:72:d4:2b:e7:d2:
        50:44:88:7c:46:2c:c3:d4:5e:74:7a:cc:83:01:32:fa:21:ef:
        5f:a0:a1:47:6d:b7:a5:5a:85:f7:d5:fb:9a:f6:6c:36:88:2a:
        f3:f1:0b:ce:cb:a5:bb:3f:d8:0f:c2:86:42:00:5f:77:50:1b:
        94:1f:99:0d:7e:9d:b9:79:5f:cd:c1:0a:9b:4a:0c:5b:59:75:
        36:99:47:b0:66:bc:3a:f8:6d:5d:e2:d4:05:0f:4d:fb:a2:1f:
        10:99:07:a2:94:0c:94:fe:be:a5:71:65:ab:94:f1:1b:cb:02:
        27:47:19:5e:7f:a0:cc:51:a7:b0:18:c7:9d:11:0d:c2:e1:49:
        a9:aa:81:b7:b0:4b:12:eb
-----BEGIN CERTIFICATE-----
MIIERDCCAiygAwIBAgICEAAwDQYJKoZIhvcNAQELBQAwPzEYMBYGA1UEAwwPd3d3
Lm1vZGVsQ0EuY29tMRYwFAYDVQQKDA1Nb2RlbCBDQSBMVEQuMQswCQYDVQQGEwJV
UzAeFw0yNDA1MDcwNjU0MDdaFw0zNDA1MDUwNjU0MDdaMDwxCzAJBgNVBAYTAlVT
MRQwEgYDVQQKDAtCYW5rMzIgSW5jLjEXMBUGA1UEAwwOd3d3LmJhbmszMi5jb20w
ggEiMA0GCSqGSIb3DQEBAQUAA4IBDwAwggEKAoIBAQC0XxQfwCzEhXuiuWWW228i
TJeSeBoMyPl43ANc+h6UPGE4uPlafr28Xaco26DdKerswlIbCNB21t0GPGofLwb4
NUMQnnsYy5XonYsmDPakSJYxS0FE+o2V2kmRNCFie0f4UrxY1lhw8OEpUuUQlIO2
szg5ZOqOIvsgqqLaM+Q6Gg49/cBpzOQCkVjAV8G3Ul6ms/6xb90+AKdW35m5Iytv
YRu9c+K4UUKz6m8rSvx2X0NxRv/xwhGpIPQAI3hZ3qQ9US3nzMdxZ2GwYy9Sw0mK
k8ifPX4jdT30MT94CmEI5UqQ0Lht2W5FhcColWj9mM8BjEYTFZZP6vXpc5/bCu+X
AgMBAAGjTTBLMAkGA1UdEwQCMAAwHQYDVR0OBBYEFIS3KkNuINza19WI17WoOwkn
jhbfMB8GA1UdIwQYMBaAFKzlx+233qgi0OUAjGrfSu8c1F36MA0GCSqGSIb3DQEB
CwUAA4ICAQCHXR7Q0P8PlDdefny6VMo9jld3n9H2nkzjsvpXdX3HzgKiZFBmIjZz
4VDpA41O/EVS7sZywsAi5ZZj6b/DLI1VuMzzUPKqH61x/1IhP/js33e5BqsNlttH
vHXNWQPsTHqDIc5wti2imNHWiBqnDRB8fEh0ZboZ93nJgeNqe9P6XtSzlnhyjRDm
g8HI/Ls7Xa5DrwOOmJmEkY1gmv03kZYHtyeG4jBy05lRVkj5E0omHA2AXiS2gV0s
xHPg2uwu8llPYA+wfVGuaAMoX/sFzBabkXZAMbQ8FhZWk+JtpXZxbBY2qbTFTSrC
HKqqkGenm0BRTsMUOI7cTmiy/aYVhTEPpC2JJ3VEOmHA6pAUUK0fe5IeNLcEZsFj
tPulzcR3kGTYLUdDgMuIolyqH2FSkRXE18IhCiBDBBOzjggZEizCwcM35eQkz2PE
SzAalKnWNpbG0WWa1C/J/4PxucKLF7IP+SF2dFqFHON9qrNEMKq+wU61fVlgctQr
59JQRIh8RizD1F50esyDATL6Ie9foKFHbbelWoX31fua9mw2iCrz8QvOy6W7P9gP
woZCAF93UBuUH5kNfp25eV/NwQqbSgxbWXU2mUewZrw6+G1d4tQFD037oh8QmQei
lAyU/r6lcWWrlPEbywInRxlef6DMUaewGMedEQ3C4UmpqoG3sEsS6w==
-----END CERTIFICATE-----
